target datalayout = "e-m:e-p270:32:32-p271:32:32-p272:64:64-i64:64-i128:128-f80:128-n8:16:32:64-S128"
target triple = "x86_64-pc-linux-gnu"

%struct.AVChannelLayout = type { i32, i32, %union.anon, ptr }
%union.anon = type { i64 }
%struct.ChannelParams = type { [2 x %struct.FilterParams], [2 x [8 x i32]], i16, i32, i8, i8 }
%struct.FilterParams = type { i8, i8, [8 x i32], i32, i32 }
%struct.DecodingParams = type { i16, [8 x i8], [8 x i8], [8 x i8], %struct.MatrixParams, i8, [10 x [160 x i32]] }
%struct.MatrixParams = type { i8, [8 x i8], [8 x [10 x i32]], [8 x [10 x i32]], [8 x i8], [8 x i8], [8 x i8], [8 x [160 x i8]] }
%struct.BestOffset = type { i32, i32, i8, i32, i32 }
%struct.AVCodecContext = type { ptr, i32, i32, ptr, i32, i32, ptr, ptr, ptr, i64, i32, i32, ptr, i32, %struct.AVRational, %struct.AVRational, %struct.AVRational, i32, i32, i32, i32, i32, %struct.AVRational, i32, i32, i32, i32, i32, i32, i32, i32, i32, i32, i32, ptr, ptr, i32, float, float, float, float, float, float, float, float, float, i32, i32, i32, i32, i32, i32, i32, i32, i32, i32, i32, i32, ptr, ptr, ptr, i32, i32, i32, i32, i32, i32, i32, i32, i32, i32, %struct.AVChannelLayout, i32, i32, i32, i32, i32, i32, i32, i32, ptr, i32, i32, i32, float, float, i32, i32, i32, i32, i32, ptr, i64, i64, float, float, i32, i32, ptr, ptr, i32, i32, i32, i32, i32, ptr, ptr, ptr, ptr, i32, i32, [8 x i64], i32, i32, i32, i32, i32, i32, i32, ptr, ptr, i32, i32, i32, i32, i32, i32, i32, i32, i32, i32, ptr, ptr, i32, i32, ptr, ptr, ptr, ptr, i32, i32, i64, i32, i32, i64, ptr, i64, ptr, i32, ptr, i32 }
%struct.AVRational = type { i32, i32 }
%struct.MLPEncodeContext = type { ptr, ptr, i32, i32, i32, i32, i32, i32, i32, i32, i32, i32, i32, [2 x i32], [2 x i32], i32, i32, i32, i32, i32, i32, i32, i32, i32, i32, i32, i32, i32, i32, i32, i16, i16, i8, i8, i16, i8, i8, i8, i8, i8, [2 x %struct.MLPSubstream], [2 x [20480 x i32]], [20480 x i32], %struct.AudioFrameQueue, i32, i32, i32, [12 x i8], %struct.LPCContext }
%struct.MLPSubstream = type { %struct.RestartHeader, ptr, [129 x %struct.MLPBlock], i32, i32, [8 x [32 x [32 x i32]]] }
%struct.RestartHeader = type { i8, i8, i8, i8, i8, i32, i8, i32, i8, i8 }
%struct.MLPBlock = type { i32, [8 x %struct.ChannelParams], %struct.DecodingParams, i32, i32, [8 x [4 x %struct.BestOffset]], [8 x %struct.ChannelParams], %struct.DecodingParams, i32, [10 x [160 x i32]] }
%struct.AudioFrameQueue = type { ptr, i32, i32, ptr, i32, i32 }
%struct.LPCContext = type { i32, i32, i32, ptr, ptr, ptr, ptr, [2 x %struct.LLSModel] }
%struct.LLSModel = type { [36 x [36 x double]], [32 x [32 x double]], [32 x double], i32, ptr, ptr, [8 x i8] }

; Function Attrs: cold nounwind optsize uwtable
define internal i32 @mlp_encode_close(ptr noundef %0) #0 {
  %2 = alloca ptr, align 8
  %3 = alloca ptr, align 8
  store ptr %0, ptr %2, align 8, !tbaa !4
  call void @llvm.lifetime.start.p0(i64 8, ptr %3) #9
  %4 = load ptr, ptr %2, align 8, !tbaa !4
  %5 = getelementptr inbounds nuw %struct.AVCodecContext, ptr %4, i32 0, i32 6
  %6 = load ptr, ptr %5, align 8, !tbaa !9
  store ptr %6, ptr %3, align 8, !tbaa !29
  %7 = load ptr, ptr %3, align 8, !tbaa !29
  %8 = getelementptr inbounds nuw %struct.MLPEncodeContext, ptr %7, i32 0, i32 48
  call void @ff_lpc_end(ptr noundef %8)
  %9 = load ptr, ptr %3, align 8, !tbaa !29
  %10 = getelementptr inbounds nuw %struct.MLPEncodeContext, ptr %9, i32 0, i32 43
  call void @ff_af_queue_close(ptr noundef %10)
  call void @llvm.lifetime.end.p0(i64 8, ptr %3) #9
  ret i32 0
}