; Function Attrs: cold nounwind optsize uwtable
define internal noundef i32 @mlp_encode_close(ptr noundef readonly captures(none) %0) #0 {
  %2 = getelementptr inbounds nuw i8, ptr %0, i64 32
  %3 = load ptr, ptr %2, align 8, !tbaa !4
  %4 = getelementptr inbounds nuw i8, ptr %3, i64 7137232
  tail call void @ff_lpc_end(ptr noundef nonnull %4) #9
  %5 = getelementptr inbounds nuw i8, ptr %3, i64 7137176
  tail call void @ff_af_queue_close(ptr noundef nonnull %5) #9
  ret i32 0
}